target datalayout = "e-m:e-p270:32:32-p271:32:32-p272:64:64-i64:64-i128:128-f80:128-n8:16:32:64-S128"
target triple = "x86_64-pc-linux-gnu"

%struct._zend_ssa_op = type { i32, i32, i32, i32, i32, i32, i32, i32, i32 }
%struct._zend_ssa = type { %struct._zend_cfg, i32, i32, ptr, ptr, ptr, ptr }
%struct._zend_cfg = type { i32, i32, ptr, ptr, ptr, i32 }
%struct._zend_ssa_var = type { i32, i32, i32, i32, ptr, ptr, ptr, i8 }

; Function Attrs: nounwind uwtable
define hidden void @zend_ssa_replace_use_chain(ptr noundef %0, i32 noundef %1, i32 noundef %2, i32 noundef %3) #0 {
  %5 = alloca ptr, align 8
  %6 = alloca i32, align 4
  %7 = alloca i32, align 4
  %8 = alloca i32, align 4
  %9 = alloca i32, align 4
  %10 = alloca i32, align 4
  store ptr %0, ptr %5, align 8, !tbaa !48
  store i32 %1, ptr %6, align 4, !tbaa !11
  store i32 %2, ptr %7, align 4, !tbaa !11
  store i32 %3, ptr %8, align 4, !tbaa !11
  %11 = load ptr, ptr %5, align 8, !tbaa !48
  %12 = getelementptr inbounds nuw %struct._zend_ssa, ptr %11, i32 0, i32 5
  %13 = load ptr, ptr %12, align 8, !tbaa !116
  %14 = load i32, ptr %8, align 4, !tbaa !11
  %15 = sext i32 %14 to i64
  %16 = getelementptr inbounds %struct._zend_ssa_var, ptr %13, i64 %15
  %17 = getelementptr inbounds nuw %struct._zend_ssa_var, ptr %16, i32 0, i32 3
  %18 = load i32, ptr %17, align 4, !tbaa !122
  %19 = load i32, ptr %6, align 4, !tbaa !11
  %20 = icmp eq i32 %18, %19
  br i1 %20, label %21, label %30

21:                                               ; preds = %4
  %22 = load i32, ptr %7, align 4, !tbaa !11
  %23 = load ptr, ptr %5, align 8, !tbaa !48
  %24 = getelementptr inbounds nuw %struct._zend_ssa, ptr %23, i32 0, i32 5
  %25 = load ptr, ptr %24, align 8, !tbaa !116
  %26 = load i32, ptr %8, align 4, !tbaa !11
  %27 = sext i32 %26 to i64
  %28 = getelementptr inbounds %struct._zend_ssa_var, ptr %25, i64 %27
  %29 = getelementptr inbounds nuw %struct._zend_ssa_var, ptr %28, i32 0, i32 3
  store i32 %22, ptr %29, align 4, !tbaa !122
  br label %174

30:                                               ; preds = %4
  call void @llvm.lifetime.start.p0(i64 4, ptr %9) #13
  %31 = load ptr, ptr %5, align 8, !tbaa !48
  %32 = getelementptr inbounds nuw %struct._zend_ssa, ptr %31, i32 0, i32 5
  %33 = load ptr, ptr %32, align 8, !tbaa !116
  %34 = load i32, ptr %8, align 4, !tbaa !11
  %35 = sext i32 %34 to i64
  %36 = getelementptr inbounds %struct._zend_ssa_var, ptr %33, i64 %35
  %37 = getelementptr inbounds nuw %struct._zend_ssa_var, ptr %36, i32 0, i32 3
  %38 = load i32, ptr %37, align 4, !tbaa !122
  store i32 %38, ptr %9, align 4, !tbaa !11
  br label %39

39:                                               ; preds = %168, %30
  %40 = load i32, ptr %9, align 4, !tbaa !11
  %41 = icmp sge i32 %40, 0
  br i1 %41, label %42, label %169

42:                                               ; preds = %39
  %43 = load ptr, ptr %5, align 8, !tbaa !48
  %44 = getelementptr inbounds nuw %struct._zend_ssa, ptr %43, i32 0, i32 4
  %45 = load ptr, ptr %44, align 8, !tbaa !97
  %46 = load i32, ptr %9, align 4, !tbaa !11
  %47 = sext i32 %46 to i64
  %48 = getelementptr inbounds %struct._zend_ssa_op, ptr %45, i64 %47
  %49 = getelementptr inbounds nuw %struct._zend_ssa_op, ptr %48, i32 0, i32 2
  %50 = load i32, ptr %49, align 4, !tbaa !26
  %51 = load i32, ptr %8, align 4, !tbaa !11
  %52 = icmp eq i32 %50, %51
  br i1 %52, label %53, label %83

53:                                               ; preds = %42
  %54 = load ptr, ptr %5, align 8, !tbaa !48
  %55 = getelementptr inbounds nuw %struct._zend_ssa, ptr %54, i32 0, i32 4
  %56 = load ptr, ptr %55, align 8, !tbaa !97
  %57 = load i32, ptr %9, align 4, !tbaa !11
  %58 = sext i32 %57 to i64
  %59 = getelementptr inbounds %struct._zend_ssa_op, ptr %56, i64 %58
  %60 = getelementptr inbounds nuw %struct._zend_ssa_op, ptr %59, i32 0, i32 8
  %61 = load i32, ptr %60, align 4, !tbaa !125
  %62 = load i32, ptr %6, align 4, !tbaa !11
  %63 = icmp eq i32 %61, %62
  br i1 %63, label %64, label %73

64:                                               ; preds = %53
  %65 = load i32, ptr %7, align 4, !tbaa !11
  %66 = load ptr, ptr %5, align 8, !tbaa !48
  %67 = getelementptr inbounds nuw %struct._zend_ssa, ptr %66, i32 0, i32 4
  %68 = load ptr, ptr %67, align 8, !tbaa !97
  %69 = load i32, ptr %9, align 4, !tbaa !11
  %70 = sext i32 %69 to i64
  %71 = getelementptr inbounds %struct._zend_ssa_op, ptr %68, i64 %70
  %72 = getelementptr inbounds nuw %struct._zend_ssa_op, ptr %71, i32 0, i32 8
  store i32 %65, ptr %72, align 4, !tbaa !125
  store i32 1, ptr %10, align 4
  br label %170

73:                                               ; preds = %53
  %74 = load ptr, ptr %5, align 8, !tbaa !48
  %75 = getelementptr inbounds nuw %struct._zend_ssa, ptr %74, i32 0, i32 4
  %76 = load ptr, ptr %75, align 8, !tbaa !97
  %77 = load i32, ptr %9, align 4, !tbaa !11
  %78 = sext i32 %77 to i64
  %79 = getelementptr inbounds %struct._zend_ssa_op, ptr %76, i64 %78
  %80 = getelementptr inbounds nuw %struct._zend_ssa_op, ptr %79, i32 0, i32 8
  %81 = load i32, ptr %80, align 4, !tbaa !125
  store i32 %81, ptr %9, align 4, !tbaa !11
  br label %82

82:                                               ; preds = %73
  br label %168

83:                                               ; preds = %42
  %84 = load ptr, ptr %5, align 8, !tbaa !48
  %85 = getelementptr inbounds nuw %struct._zend_ssa, ptr %84, i32 0, i32 4
  %86 = load ptr, ptr %85, align 8, !tbaa !97
  %87 = load i32, ptr %9, align 4, !tbaa !11
  %88 = sext i32 %87 to i64
  %89 = getelementptr inbounds %struct._zend_ssa_op, ptr %86, i64 %88
  %90 = getelementptr inbounds nuw %struct._zend_ssa_op, ptr %89, i32 0, i32 0
  %91 = load i32, ptr %90, align 4, !tbaa !20
  %92 = load i32, ptr %8, align 4, !tbaa !11
  %93 = icmp eq i32 %91, %92
  br i1 %93, label %94, label %124

94:                                               ; preds = %83
  %95 = load ptr, ptr %5, align 8, !tbaa !48
  %96 = getelementptr inbounds nuw %struct._zend_ssa, ptr %95, i32 0, i32 4
  %97 = load ptr, ptr %96, align 8, !tbaa !97
  %98 = load i32, ptr %9, align 4, !tbaa !11
  %99 = sext i32 %98 to i64
  %100 = getelementptr inbounds %struct._zend_ssa_op, ptr %97, i64 %99
  %101 = getelementptr inbounds nuw %struct._zend_ssa_op, ptr %100, i32 0, i32 6
  %102 = load i32, ptr %101, align 4, !tbaa !123
  %103 = load i32, ptr %6, align 4, !tbaa !11
  %104 = icmp eq i32 %102, %103
  br i1 %104, label %105, label %114

105:                                              ; preds = %94
  %106 = load i32, ptr %7, align 4, !tbaa !11
  %107 = load ptr, ptr %5, align 8, !tbaa !48
  %108 = getelementptr inbounds nuw %struct._zend_ssa, ptr %107, i32 0, i32 4
  %109 = load ptr, ptr %108, align 8, !tbaa !97
  %110 = load i32, ptr %9, align 4, !tbaa !11
  %111 = sext i32 %110 to i64
  %112 = getelementptr inbounds %struct._zend_ssa_op, ptr %109, i64 %111
  %113 = getelementptr inbounds nuw %struct._zend_ssa_op, ptr %112, i32 0, i32 6
  store i32 %106, ptr %113, align 4, !tbaa !123
  store i32 1, ptr %10, align 4
  br label %170

114:                                              ; preds = %94
  %115 = load ptr, ptr %5, align 8, !tbaa !48
  %116 = getelementptr inbounds nuw %struct._zend_ssa, ptr %115, i32 0, i32 4
  %117 = load ptr, ptr %116, align 8, !tbaa !97
  %118 = load i32, ptr %9, align 4, !tbaa !11
  %119 = sext i32 %118 to i64
  %120 = getelementptr inbounds %struct._zend_ssa_op, ptr %117, i64 %119
  %121 = getelementptr inbounds nuw %struct._zend_ssa_op, ptr %120, i32 0, i32 6
  %122 = load i32, ptr %121, align 4, !tbaa !123
  store i32 %122, ptr %9, align 4, !tbaa !11
  br label %123

123:                                              ; preds = %114
  br label %167

124:                                              ; preds = %83
  %125 = load ptr, ptr %5, align 8, !tbaa !48
  %126 = getelementptr inbounds nuw %struct._zend_ssa, ptr %125, i32 0, i32 4
  %127 = load ptr, ptr %126, align 8, !tbaa !97
  %128 = load i32, ptr %9, align 4, !tbaa !11
  %129 = sext i32 %128 to i64
  %130 = getelementptr inbounds %struct._zend_ssa_op, ptr %127, i64 %129
  %131 = getelementptr inbounds nuw %struct._zend_ssa_op, ptr %130, i32 0, i32 1
  %132 = load i32, ptr %131, align 4, !tbaa !23
  %133 = load i32, ptr %8, align 4, !tbaa !11
  %134 = icmp eq i32 %132, %133
  br i1 %134, label %135, label %165

135:                                              ; preds = %124
  %136 = load ptr, ptr %5, align 8, !tbaa !48
  %137 = getelementptr inbounds nuw %struct._zend_ssa, ptr %136, i32 0, i32 4
  %138 = load ptr, ptr %137, align 8, !tbaa !97
  %139 = load i32, ptr %9, align 4, !tbaa !11
  %140 = sext i32 %139 to i64
  %141 = getelementptr inbounds %struct._zend_ssa_op, ptr %138, i64 %140
  %142 = getelementptr inbounds nuw %struct._zend_ssa_op, ptr %141, i32 0, i32 7
  %143 = load i32, ptr %142, align 4, !tbaa !124
  %144 = load i32, ptr %6, align 4, !tbaa !11
  %145 = icmp eq i32 %143, %144
  br i1 %145, label %146, label %155

146:                                              ; preds = %135
  %147 = load i32, ptr %7, align 4, !tbaa !11
  %148 = load ptr, ptr %5, align 8, !tbaa !48
  %149 = getelementptr inbounds nuw %struct._zend_ssa, ptr %148, i32 0, i32 4
  %150 = load ptr, ptr %149, align 8, !tbaa !97
  %151 = load i32, ptr %9, align 4, !tbaa !11
  %152 = sext i32 %151 to i64
  %153 = getelementptr inbounds %struct._zend_ssa_op, ptr %150, i64 %152
  %154 = getelementptr inbounds nuw %struct._zend_ssa_op, ptr %153, i32 0, i32 7
  store i32 %147, ptr %154, align 4, !tbaa !124
  store i32 1, ptr %10, align 4
  br label %170

155:                                              ; preds = %135
  %156 = load ptr, ptr %5, align 8, !tbaa !48
  %157 = getelementptr inbounds nuw %struct._zend_ssa, ptr %156, i32 0, i32 4
  %158 = load ptr, ptr %157, align 8, !tbaa !97
  %159 = load i32, ptr %9, align 4, !tbaa !11
  %160 = sext i32 %159 to i64
  %161 = getelementptr inbounds %struct._zend_ssa_op, ptr %158, i64 %160
  %162 = getelementptr inbounds nuw %struct._zend_ssa_op, ptr %161, i32 0, i32 7
  %163 = load i32, ptr %162, align 4, !tbaa !124
  store i32 %163, ptr %9, align 4, !tbaa !11
  br label %164

164:                                              ; preds = %155
  br label %166

165:                                              ; preds = %124
  br label %169

166:                                              ; preds = %164
  br label %167

167:                                              ; preds = %166, %123
  br label %168

168:                                              ; preds = %167, %82
  br label %39

169:                                              ; preds = %165, %39
  store i32 0, ptr %10, align 4
  br label %170

170:                                              ; preds = %169, %146, %105, %64
  call void @llvm.lifetime.end.p0(i64 4, ptr %9) #13
  %171 = load i32, ptr %10, align 4
  switch i32 %171, label %175 [
    i32 0, label %172
    i32 1, label %174
  ]

172:                                              ; preds = %170
  br label %173

173:                                              ; preds = %172
  unreachable

174:                                              ; preds = %170, %21
  ret void

175:                                              ; preds = %170
  unreachable
}