; Function Attrs: nofree norecurse nosync nounwind memory(readwrite, inaccessiblemem: none) uwtable
define hidden void @zend_ssa_replace_use_chain(ptr noundef readonly captures(none) %0, i32 noundef %1, i32 noundef %2, i32 noundef %3) local_unnamed_addr #8 {
  %5 = getelementptr inbounds nuw i8, ptr %0, i64 64
  %6 = load ptr, ptr %5, align 8, !tbaa !115
  %7 = sext i32 %3 to i64
  %8 = getelementptr inbounds %struct._zend_ssa_var, ptr %6, i64 %7, i32 3
  %9 = load i32, ptr %8, align 4, !tbaa !120
  %10 = icmp eq i32 %9, %1
  br i1 %10, label %14, label %.preheader

.preheader:                                       ; preds = %4
  %11 = icmp sgt i32 %9, -1
  br i1 %11, label %.lr.ph, label %.loopexit

.lr.ph:                                           ; preds = %.preheader
  %12 = getelementptr inbounds nuw i8, ptr %0, i64 56
  %13 = load ptr, ptr %12, align 8, !tbaa !106
  br label %15

14:                                               ; preds = %4
  store i32 %2, ptr %8, align 4, !tbaa !120
  br label %.loopexit

15:                                               ; preds = %.lr.ph, %46
  %.051 = phi i32 [ %9, %.lr.ph ], [ %.1, %46 ]
  %16 = zext nneg i32 %.051 to i64
  %17 = getelementptr inbounds nuw %struct._zend_ssa_op, ptr %13, i64 %16
  %18 = getelementptr inbounds nuw i8, ptr %17, i64 8
  %19 = load i32, ptr %18, align 4, !tbaa !18
  %20 = icmp eq i32 %19, %3
  br i1 %20, label %21, label %27

21:                                               ; preds = %15
  %22 = getelementptr inbounds nuw i8, ptr %17, i64 32
  %23 = load i32, ptr %22, align 4, !tbaa !123
  %24 = icmp eq i32 %23, %1
  br i1 %24, label %25, label %46

25:                                               ; preds = %21
  %26 = getelementptr inbounds nuw i8, ptr %17, i64 32
  store i32 %2, ptr %26, align 4, !tbaa !123
  br label %.loopexit

27:                                               ; preds = %15
  %28 = load i32, ptr %17, align 4, !tbaa !12
  %29 = icmp eq i32 %28, %3
  br i1 %29, label %30, label %36

30:                                               ; preds = %27
  %31 = getelementptr inbounds nuw i8, ptr %17, i64 24
  %32 = load i32, ptr %31, align 4, !tbaa !121
  %33 = icmp eq i32 %32, %1
  br i1 %33, label %34, label %46

34:                                               ; preds = %30
  %35 = getelementptr inbounds nuw i8, ptr %17, i64 24
  store i32 %2, ptr %35, align 4, !tbaa !121
  br label %.loopexit

36:                                               ; preds = %27
  %37 = getelementptr inbounds nuw i8, ptr %17, i64 4
  %38 = load i32, ptr %37, align 4, !tbaa !15
  %39 = icmp eq i32 %38, %3
  br i1 %39, label %40, label %.loopexit

40:                                               ; preds = %36
  %41 = getelementptr inbounds nuw i8, ptr %17, i64 28
  %42 = load i32, ptr %41, align 4, !tbaa !122
  %43 = icmp eq i32 %42, %1
  br i1 %43, label %44, label %46

44:                                               ; preds = %40
  %45 = getelementptr inbounds nuw i8, ptr %17, i64 28
  store i32 %2, ptr %45, align 4, !tbaa !122
  br label %.loopexit

46:                                               ; preds = %40, %30, %21
  %.1 = phi i32 [ %23, %21 ], [ %32, %30 ], [ %42, %40 ]
  %47 = icmp sgt i32 %.1, -1
  br i1 %47, label %15, label %.loopexit

.loopexit:                                        ; preds = %46, %36, %.preheader, %25, %34, %44, %14
  ret void
}